target datalayout = "e-m:e-p270:32:32-p271:32:32-p272:64:64-i64:64-i128:128-f80:128-n8:16:32:64-S128"
target triple = "x86_64-pc-linux-gnu"

%struct.PyVarObject = type { %struct._object, i64 }
%struct._object = type { %union.anon, ptr }
%union.anon = type { i64 }
%struct._typeobject = type { %struct.PyVarObject, ptr, i64, i64, ptr, i64, ptr, ptr, ptr, ptr, ptr, ptr, ptr, ptr, ptr, ptr, ptr, ptr, ptr, i64, ptr, ptr, ptr, ptr, i64, ptr, ptr, ptr, ptr, ptr, ptr, ptr, ptr, ptr, i64, ptr, ptr, ptr, ptr, ptr, ptr, ptr, ptr, ptr, ptr, ptr, i32, ptr, ptr, i8, i16 }

@PyExc_Exception = external global ptr, align 8
@.str = private unnamed_addr constant [25 x i8] c"RecursingInfinitelyError\00", align 1

; Function Attrs: nounwind uwtable
define hidden i32 @_PyTestCapi_Init_Exceptions(ptr noundef %0) #0 {
  %2 = alloca i32, align 4
  %3 = alloca ptr, align 8
  store ptr %0, ptr %3, align 8, !tbaa !3
  %4 = load ptr, ptr @PyExc_Exception, align 8, !tbaa !3
  store ptr %4, ptr getelementptr inbounds nuw (%struct._typeobject, ptr @PyRecursingInfinitelyError_Type, i32 0, i32 30), align 8, !tbaa !8
  %5 = call i32 @PyType_Ready(ptr noundef @PyRecursingInfinitelyError_Type)
  %6 = icmp slt i32 %5, 0
  br i1 %6, label %7, label %8

7:                                                ; preds = %1
  store i32 -1, ptr %2, align 4
  br label %19

8:                                                ; preds = %1
  %9 = load ptr, ptr %3, align 8, !tbaa !3
  %10 = call i32 @PyModule_AddObjectRef(ptr noundef %9, ptr noundef @.str, ptr noundef @PyRecursingInfinitelyError_Type)
  %11 = icmp slt i32 %10, 0
  br i1 %11, label %12, label %13

12:                                               ; preds = %8
  store i32 -1, ptr %2, align 4
  br label %19

13:                                               ; preds = %8
  %14 = load ptr, ptr %3, align 8, !tbaa !3
  %15 = call i32 @PyModule_AddFunctions(ptr noundef %14, ptr noundef @test_methods)
  %16 = icmp slt i32 %15, 0
  br i1 %16, label %17, label %18

17:                                               ; preds = %13
  store i32 -1, ptr %2, align 4
  br label %19

18:                                               ; preds = %13
  store i32 0, ptr %2, align 4
  br label %19

19:                                               ; preds = %18, %17, %12, %7
  %20 = load i32, ptr %2, align 4
  ret i32 %20
}