; Function Attrs: nounwind uwtable
define hidden range(i32 -1, 1) i32 @_PyTestCapi_Init_Exceptions(ptr noundef %0) local_unnamed_addr #0 {
  %2 = load ptr, ptr @PyExc_Exception, align 8, !tbaa !3
  store ptr %2, ptr getelementptr inbounds nuw (i8, ptr @PyRecursingInfinitelyError_Type, i64 256), align 8, !tbaa !8
  %3 = tail call i32 @PyType_Ready(ptr noundef nonnull @PyRecursingInfinitelyError_Type) #8
  %4 = icmp slt i32 %3, 0
  br i1 %4, label %10, label %5

5:                                                ; preds = %1
  %6 = tail call i32 @PyModule_AddObjectRef(ptr noundef %0, ptr noundef nonnull @.str, ptr noundef nonnull @PyRecursingInfinitelyError_Type) #8
  %7 = icmp slt i32 %6, 0
  br i1 %7, label %10, label %8

8:                                                ; preds = %5
  %9 = tail call i32 @PyModule_AddFunctions(ptr noundef %0, ptr noundef nonnull @test_methods) #8
  %.lobit = ashr i32 %9, 31
  br label %10

10:                                               ; preds = %8, %5, %1
  %.0 = phi i32 [ -1, %1 ], [ -1, %5 ], [ %.lobit, %8 ]
  ret i32 %.0
}